target datalayout = "e-m:e-p270:32:32-p271:32:32-p272:64:64-i64:64-i128:128-f80:128-n8:16:32:64-S128"
target triple = "x86_64-pc-linux-gnu"

%struct._lv_global_t = type { i8, i8, %struct.lv_ll_t, ptr, ptr, %struct.lv_ll_t, i8, i32, i32, ptr, %struct.lv_ll_t, ptr, %struct.lv_ll_t, ptr, ptr, i32, ptr, i8, i32, i32, ptr, i32, %struct.lv_timer_state_t, %struct.lv_anim_state_t, %struct.lv_tick_state_t, %struct._lv_draw_buf_handlers_t, %struct._lv_draw_buf_handlers_t, %struct._lv_draw_buf_handlers_t, %struct.lv_ll_t, ptr, ptr, %struct.lv_draw_global_info_t, [4 x %struct.lv_draw_sw_mask_radius_circle_dsc_t], ptr, ptr, ptr, %struct.lv_tlsf_state_t, %struct.lv_ll_t, ptr, ptr, %struct.lv_style_t, i64, ptr, i32, ptr }
%struct.lv_timer_state_t = type { %struct.lv_ll_t, i8, i8, i8, i8, i32, i8, i32, i32, i32, i32, ptr, ptr }
%struct.lv_anim_state_t = type { i8, i8, ptr, %struct.lv_ll_t }
%struct.lv_tick_state_t = type { i32, i8, ptr, ptr }
%struct._lv_draw_buf_handlers_t = type { ptr, ptr, ptr, ptr, ptr, ptr }
%struct.lv_draw_global_info_t = type { ptr, i32, i32, i32, i32, i8 }
%struct.lv_draw_sw_mask_radius_circle_dsc_t = type { ptr, ptr, ptr, ptr, i32, i32, i32 }
%struct.lv_tlsf_state_t = type { ptr, i64, i64, %struct.lv_ll_t }
%struct.lv_ll_t = type { i32, ptr, ptr }
%struct.lv_style_t = type { ptr, i32, i8 }
%struct._lv_obj_t = type { ptr, ptr, ptr, ptr, ptr, %struct.lv_area_t, i32, i16, i16 }
%struct.lv_area_t = type { i32, i32, i32, i32 }
%struct._lv_obj_style_t = type { ptr, i32 }
%struct.trans_t = type { ptr, i8, i32, %union.lv_style_value_t, %union.lv_style_value_t }
%union.lv_style_value_t = type { ptr }

@lv_global = external global %struct._lv_global_t, align 8

; Function Attrs: nounwind uwtable
define internal zeroext i1 @trans_delete(ptr noundef %0, i32 noundef %1, i8 noundef zeroext %2, ptr noundef %3) #0 {
  %5 = alloca ptr, align 8
  %6 = alloca i32, align 4
  %7 = alloca i8, align 1
  %8 = alloca ptr, align 8
  %9 = alloca ptr, align 8
  %10 = alloca ptr, align 8
  %11 = alloca i8, align 1
  %12 = alloca i32, align 4
  store ptr %0, ptr %5, align 8, !tbaa !30
  store i32 %1, ptr %6, align 4, !tbaa !32
  store i8 %2, ptr %7, align 1, !tbaa !43
  store ptr %3, ptr %8, align 8, !tbaa !31
  call void @llvm.lifetime.start.p0(i64 8, ptr %9) #6
  call void @llvm.lifetime.start.p0(i64 8, ptr %10) #6
  call void @llvm.lifetime.start.p0(i64 1, ptr %11) #6
  store i8 0, ptr %11, align 1, !tbaa !47
  %13 = call ptr @lv_ll_get_tail(ptr noundef getelementptr inbounds nuw (%struct._lv_global_t, ptr @lv_global, i32 0, i32 5))
  store ptr %13, ptr %9, align 8, !tbaa !31
  br label %14

14:                                               ; preds = %110, %4
  %15 = load ptr, ptr %9, align 8, !tbaa !31
  %16 = icmp ne ptr %15, null
  br i1 %16, label %17, label %112

17:                                               ; preds = %14
  %18 = load ptr, ptr %9, align 8, !tbaa !31
  %19 = load ptr, ptr %8, align 8, !tbaa !31
  %20 = icmp eq ptr %18, %19
  br i1 %20, label %21, label %22

21:                                               ; preds = %17
  br label %112

22:                                               ; preds = %17
  %23 = load ptr, ptr %9, align 8, !tbaa !31
  %24 = call ptr @lv_ll_get_prev(ptr noundef getelementptr inbounds nuw (%struct._lv_global_t, ptr @lv_global, i32 0, i32 5), ptr noundef %23)
  store ptr %24, ptr %10, align 8, !tbaa !31
  %25 = load ptr, ptr %9, align 8, !tbaa !31
  %26 = getelementptr inbounds nuw %struct.trans_t, ptr %25, i32 0, i32 0
  %27 = load ptr, ptr %26, align 8, !tbaa !48
  %28 = load ptr, ptr %5, align 8, !tbaa !30
  %29 = icmp eq ptr %27, %28
  br i1 %29, label %30, label %110

30:                                               ; preds = %22
  %31 = load i32, ptr %6, align 4, !tbaa !32
  %32 = load ptr, ptr %9, align 8, !tbaa !31
  %33 = getelementptr inbounds nuw %struct.trans_t, ptr %32, i32 0, i32 2
  %34 = load i32, ptr %33, align 4, !tbaa !50
  %35 = icmp eq i32 %31, %34
  br i1 %35, label %39, label %36

36:                                               ; preds = %30
  %37 = load i32, ptr %6, align 4, !tbaa !32
  %38 = icmp eq i32 %37, 983040
  br i1 %38, label %39, label %110

39:                                               ; preds = %36, %30
  %40 = load i8, ptr %7, align 1, !tbaa !43
  %41 = zext i8 %40 to i32
  %42 = load ptr, ptr %9, align 8, !tbaa !31
  %43 = getelementptr inbounds nuw %struct.trans_t, ptr %42, i32 0, i32 1
  %44 = load i8, ptr %43, align 8, !tbaa !51
  %45 = zext i8 %44 to i32
  %46 = icmp eq i32 %41, %45
  br i1 %46, label %51, label %47

47:                                               ; preds = %39
  %48 = load i8, ptr %7, align 1, !tbaa !43
  %49 = zext i8 %48 to i32
  %50 = icmp eq i32 %49, 255
  br i1 %50, label %51, label %110

51:                                               ; preds = %47, %39
  call void @llvm.lifetime.start.p0(i64 4, ptr %12) #6
  store i32 0, ptr %12, align 4, !tbaa !32
  br label %52

52:                                               ; preds = %102, %51
  %53 = load i32, ptr %12, align 4, !tbaa !32
  %54 = load ptr, ptr %5, align 8, !tbaa !30
  %55 = getelementptr inbounds nuw %struct._lv_obj_t, ptr %54, i32 0, i32 8
  %56 = load i16, ptr %55, align 2
  %57 = lshr i16 %56, 4
  %58 = and i16 %57, 63
  %59 = zext i16 %58 to i32
  %60 = icmp ult i32 %53, %59
  br i1 %60, label %61, label %105

61:                                               ; preds = %52
  %62 = load ptr, ptr %5, align 8, !tbaa !30
  %63 = getelementptr inbounds nuw %struct._lv_obj_t, ptr %62, i32 0, i32 3
  %64 = load ptr, ptr %63, align 8, !tbaa !33
  %65 = load i32, ptr %12, align 4, !tbaa !32
  %66 = zext i32 %65 to i64
  %67 = getelementptr inbounds nuw %struct._lv_obj_style_t, ptr %64, i64 %66
  %68 = getelementptr inbounds nuw %struct._lv_obj_style_t, ptr %67, i32 0, i32 1
  %69 = load i32, ptr %68, align 8
  %70 = lshr i32 %69, 25
  %71 = and i32 %70, 1
  %72 = icmp ne i32 %71, 0
  br i1 %72, label %73, label %101

73:                                               ; preds = %61
  %74 = load i32, ptr %6, align 4, !tbaa !32
  %75 = icmp eq i32 %74, 983040
  br i1 %75, label %88, label %76

76:                                               ; preds = %73
  %77 = load ptr, ptr %5, align 8, !tbaa !30
  %78 = getelementptr inbounds nuw %struct._lv_obj_t, ptr %77, i32 0, i32 3
  %79 = load ptr, ptr %78, align 8, !tbaa !33
  %80 = load i32, ptr %12, align 4, !tbaa !32
  %81 = zext i32 %80 to i64
  %82 = getelementptr inbounds nuw %struct._lv_obj_style_t, ptr %79, i64 %81
  %83 = getelementptr inbounds nuw %struct._lv_obj_style_t, ptr %82, i32 0, i32 1
  %84 = load i32, ptr %83, align 8
  %85 = and i32 %84, 16777215
  %86 = load i32, ptr %6, align 4, !tbaa !32
  %87 = icmp eq i32 %85, %86
  br i1 %87, label %88, label %101

88:                                               ; preds = %76, %73
  %89 = load ptr, ptr %5, align 8, !tbaa !30
  %90 = getelementptr inbounds nuw %struct._lv_obj_t, ptr %89, i32 0, i32 3
  %91 = load ptr, ptr %90, align 8, !tbaa !33
  %92 = load i32, ptr %12, align 4, !tbaa !32
  %93 = zext i32 %92 to i64
  %94 = getelementptr inbounds nuw %struct._lv_obj_style_t, ptr %91, i64 %93
  %95 = getelementptr inbounds nuw %struct._lv_obj_style_t, ptr %94, i32 0, i32 0
  %96 = load ptr, ptr %95, align 8, !tbaa !45
  %97 = load ptr, ptr %9, align 8, !tbaa !31
  %98 = getelementptr inbounds nuw %struct.trans_t, ptr %97, i32 0, i32 1
  %99 = load i8, ptr %98, align 8, !tbaa !51
  %100 = call zeroext i1 @lv_style_remove_prop(ptr noundef %96, i8 noundef zeroext %99)
  br label %101

101:                                              ; preds = %88, %76, %61
  br label %102

102:                                              ; preds = %101
  %103 = load i32, ptr %12, align 4, !tbaa !32
  %104 = add i32 %103, 1
  store i32 %104, ptr %12, align 4, !tbaa !32
  br label %52, !llvm.loop !52

105:                                              ; preds = %52
  %106 = load ptr, ptr %9, align 8, !tbaa !31
  %107 = call zeroext i1 @lv_anim_delete(ptr noundef %106, ptr noundef null)
  %108 = load ptr, ptr %9, align 8, !tbaa !31
  call void @lv_ll_remove(ptr noundef getelementptr inbounds nuw (%struct._lv_global_t, ptr @lv_global, i32 0, i32 5), ptr noundef %108)
  %109 = load ptr, ptr %9, align 8, !tbaa !31
  call void @lv_free(ptr noundef %109)
  store i8 1, ptr %11, align 1, !tbaa !47
  call void @llvm.lifetime.end.p0(i64 4, ptr %12) #6
  br label %110

110:                                              ; preds = %105, %47, %36, %22
  %111 = load ptr, ptr %10, align 8, !tbaa !31
  store ptr %111, ptr %9, align 8, !tbaa !31
  br label %14, !llvm.loop !53

112:                                              ; preds = %21, %14
  %113 = load i8, ptr %11, align 1, !tbaa !47, !range !54, !noundef !55
  %114 = trunc i8 %113 to i1
  call void @llvm.lifetime.end.p0(i64 1, ptr %11) #6
  call void @llvm.lifetime.end.p0(i64 8, ptr %10) #6
  call void @llvm.lifetime.end.p0(i64 8, ptr %9) #6
  ret i1 %114
}