; Function Attrs: nounwind uwtable
define internal fastcc void @trans_delete(ptr noundef readonly captures(address) %0, i32 noundef %1, i8 noundef zeroext %2, ptr noundef readnone captures(address) %3) unnamed_addr #0 {
  %5 = tail call ptr @lv_ll_get_tail(ptr noundef nonnull getelementptr inbounds nuw (i8, ptr @lv_global, i64 48)) #9
  %.not41 = icmp eq ptr %5, null
  %6 = icmp eq ptr %5, %3
  %or.cond3742 = or i1 %.not41, %6
  br i1 %or.cond3742, label %._crit_edge47, label %.lr.ph46

.lr.ph46:                                         ; preds = %4
  %7 = icmp eq i32 %1, 983040
  %8 = icmp eq i8 %2, -1
  %9 = getelementptr inbounds nuw i8, ptr %0, i64 62
  %10 = getelementptr inbounds nuw i8, ptr %0, i64 24
  br i1 %7, label %.lr.ph46.split.us, label %.lr.ph46.split

.lr.ph46.split.us:                                ; preds = %.lr.ph46, %19
  %.03343.us = phi ptr [ %11, %19 ], [ %5, %.lr.ph46 ]
  %11 = tail call ptr @lv_ll_get_prev(ptr noundef nonnull getelementptr inbounds nuw (i8, ptr @lv_global, i64 48), ptr noundef nonnull %.03343.us) #9
  %12 = load ptr, ptr %.03343.us, align 8, !tbaa !51
  %13 = icmp eq ptr %12, %0
  br i1 %13, label %14, label %19

14:                                               ; preds = %.lr.ph46.split.us
  %15 = getelementptr inbounds nuw i8, ptr %.03343.us, i64 8
  %16 = load i8, ptr %15, align 8, !tbaa !53
  %17 = icmp eq i8 %2, %16
  %or.cond4.us = or i1 %8, %17
  br i1 %or.cond4.us, label %.preheader.us, label %19

._crit_edge.split.us.us:                          ; preds = %33, %.preheader.us
  %18 = tail call zeroext i1 @lv_anim_delete(ptr noundef nonnull %.03343.us, ptr noundef null) #9
  tail call void @lv_ll_remove(ptr noundef nonnull getelementptr inbounds nuw (i8, ptr @lv_global, i64 48), ptr noundef nonnull %.03343.us) #9
  tail call void @lv_free(ptr noundef nonnull %.03343.us) #9
  br label %19

19:                                               ; preds = %._crit_edge.split.us.us, %14, %.lr.ph46.split.us
  %.not.us = icmp eq ptr %11, null
  %20 = icmp eq ptr %11, %3
  %or.cond37.us = or i1 %.not.us, %20
  br i1 %or.cond37.us, label %._crit_edge47, label %.lr.ph46.split.us, !llvm.loop !54

.preheader.us:                                    ; preds = %14
  %21 = load i16, ptr %9, align 2
  %22 = and i16 %21, 1008
  %.not50 = icmp eq i16 %22, 0
  br i1 %.not50, label %._crit_edge.split.us.us, label %.lr.ph.us

.lr.ph.us:                                        ; preds = %.preheader.us, %33
  %23 = phi i16 [ %34, %33 ], [ %21, %.preheader.us ]
  %indvars.iv53 = phi i64 [ %indvars.iv.next54, %33 ], [ 0, %.preheader.us ]
  %24 = load ptr, ptr %10, align 8, !tbaa !38
  %25 = getelementptr inbounds nuw %struct._lv_obj_style_t, ptr %24, i64 %indvars.iv53, i32 1
  %26 = load i32, ptr %25, align 8
  %27 = and i32 %26, 33554432
  %.not36.us.us = icmp eq i32 %27, 0
  br i1 %.not36.us.us, label %33, label %28

28:                                               ; preds = %.lr.ph.us
  %29 = getelementptr inbounds nuw %struct._lv_obj_style_t, ptr %24, i64 %indvars.iv53
  %30 = load ptr, ptr %29, align 8, !tbaa !49
  %31 = load i8, ptr %15, align 8, !tbaa !53
  %32 = tail call zeroext i1 @lv_style_remove_prop(ptr noundef %30, i8 noundef zeroext %31) #9
  %.pre56 = load i16, ptr %9, align 2
  br label %33

33:                                               ; preds = %28, %.lr.ph.us
  %34 = phi i16 [ %.pre56, %28 ], [ %23, %.lr.ph.us ]
  %indvars.iv.next54 = add nuw nsw i64 %indvars.iv53, 1
  %35 = lshr i16 %34, 4
  %36 = and i16 %35, 63
  %37 = zext nneg i16 %36 to i64
  %38 = icmp samesign ult i64 %indvars.iv.next54, %37
  br i1 %38, label %.lr.ph.us, label %._crit_edge.split.us.us, !llvm.loop !55

.lr.ph46.split:                                   ; preds = %.lr.ph46, %71
  %.03343 = phi ptr [ %39, %71 ], [ %5, %.lr.ph46 ]
  %39 = tail call ptr @lv_ll_get_prev(ptr noundef nonnull getelementptr inbounds nuw (i8, ptr @lv_global, i64 48), ptr noundef nonnull %.03343) #9
  %40 = load ptr, ptr %.03343, align 8, !tbaa !51
  %41 = icmp eq ptr %40, %0
  br i1 %41, label %42, label %71

42:                                               ; preds = %.lr.ph46.split
  %43 = getelementptr inbounds nuw i8, ptr %.03343, i64 12
  %44 = load i32, ptr %43, align 4, !tbaa !56
  %45 = icmp eq i32 %1, %44
  br i1 %45, label %46, label %71

46:                                               ; preds = %42
  %47 = getelementptr inbounds nuw i8, ptr %.03343, i64 8
  %48 = load i8, ptr %47, align 8, !tbaa !53
  %49 = icmp eq i8 %2, %48
  %or.cond4 = or i1 %8, %49
  br i1 %or.cond4, label %.preheader, label %71

.preheader:                                       ; preds = %46
  %50 = load i16, ptr %9, align 2
  %51 = and i16 %50, 1008
  %.not49 = icmp eq i16 %51, 0
  br i1 %.not49, label %._crit_edge.split, label %.lr.ph

.lr.ph:                                           ; preds = %.preheader, %64
  %52 = phi i16 [ %65, %64 ], [ %50, %.preheader ]
  %indvars.iv = phi i64 [ %indvars.iv.next, %64 ], [ 0, %.preheader ]
  %53 = load ptr, ptr %10, align 8, !tbaa !38
  %54 = getelementptr inbounds nuw %struct._lv_obj_style_t, ptr %53, i64 %indvars.iv, i32 1
  %55 = load i32, ptr %54, align 8
  %56 = and i32 %55, 33554432
  %.not36 = icmp ne i32 %56, 0
  %57 = and i32 %55, 16777215
  %58 = icmp eq i32 %57, %1
  %or.cond = and i1 %.not36, %58
  br i1 %or.cond, label %59, label %64

59:                                               ; preds = %.lr.ph
  %60 = getelementptr inbounds nuw %struct._lv_obj_style_t, ptr %53, i64 %indvars.iv
  %61 = load ptr, ptr %60, align 8, !tbaa !49
  %62 = load i8, ptr %47, align 8, !tbaa !53
  %63 = tail call zeroext i1 @lv_style_remove_prop(ptr noundef %61, i8 noundef zeroext %62) #9
  %.pre = load i16, ptr %9, align 2
  br label %64

64:                                               ; preds = %.lr.ph, %59
  %65 = phi i16 [ %52, %.lr.ph ], [ %.pre, %59 ]
  %indvars.iv.next = add nuw nsw i64 %indvars.iv, 1
  %66 = lshr i16 %65, 4
  %67 = and i16 %66, 63
  %68 = zext nneg i16 %67 to i64
  %69 = icmp samesign ult i64 %indvars.iv.next, %68
  br i1 %69, label %.lr.ph, label %._crit_edge.split, !llvm.loop !55

._crit_edge.split:                                ; preds = %64, %.preheader
  %70 = tail call zeroext i1 @lv_anim_delete(ptr noundef nonnull %.03343, ptr noundef null) #9
  tail call void @lv_ll_remove(ptr noundef nonnull getelementptr inbounds nuw (i8, ptr @lv_global, i64 48), ptr noundef nonnull %.03343) #9
  tail call void @lv_free(ptr noundef nonnull %.03343) #9
  br label %71

71:                                               ; preds = %46, %42, %._crit_edge.split, %.lr.ph46.split
  %.not = icmp eq ptr %39, null
  %72 = icmp eq ptr %39, %3
  %or.cond37 = or i1 %.not, %72
  br i1 %or.cond37, label %._crit_edge47, label %.lr.ph46.split, !llvm.loop !54

._crit_edge47:                                    ; preds = %71, %19, %4
  ret void
}